; Function Attrs: nounwind uwtable
define range(i32 0, 2) i32 @TS_ACCURACY_set_seconds(ptr noundef captures(none) %0, ptr noundef %1) local_unnamed_addr #0 {
  %3 = load ptr, ptr %0, align 8, !tbaa !27
  %4 = icmp eq ptr %3, %1
  br i1 %4, label %11, label %5

5:                                                ; preds = %2
  %6 = tail call ptr @ASN1_INTEGER_dup(ptr noundef %1) #4
  %7 = icmp eq ptr %6, null
  br i1 %7, label %8, label %9

8:                                                ; preds = %5
  tail call void @ERR_new() #4
  tail call void @ERR_set_debug(ptr noundef nonnull @.str, i32 noundef 181, ptr noundef nonnull @__func__.TS_ACCURACY_set_seconds) #4
  tail call void (i32, i32, ptr, ...) @ERR_set_error(i32 noundef 47, i32 noundef 524301, ptr noundef null) #4
  br label %11

9:                                                ; preds = %5
  %10 = load ptr, ptr %0, align 8, !tbaa !27
  tail call void @ASN1_INTEGER_free(ptr noundef %10) #4
  store ptr %6, ptr %0, align 8, !tbaa !27
  br label %11

11:                                               ; preds = %2, %9, %8
  %.0 = phi i32 [ 0, %8 ], [ 1, %9 ], [ 1, %2 ]
  ret i32 %.0
}